(dp0
VRASTERLAYER_INPUTLAYER
p1
VBinary flood map with flooded pixels coded as 1 and non-flooded pixels coded as 0.
p2
sS'ALG_DESC'
p3
VSaves a KML file with the same name as the input file showing flooded areas.
p4
s.